; Function Attrs: mustprogress uwtable
define dso_local void @_ZNK4pbrt15PtexTextureBase12BaseToStringB5cxx11Ev(ptr noalias nonnull sret(%"class.std::__cxx11::basic_string") align 8 %agg.result, ptr noundef nonnull align 8 dereferenceable(52) %this) local_unnamed_addr #0 align 2 personality ptr @__gxx_personality_v0 {
entry:
  %filename = getelementptr inbounds i8, ptr %this, i64 8
  %encoding = getelementptr inbounds i8, ptr %this, i64 40
  %scale = getelementptr inbounds i8, ptr %this, i64 48
  tail call void @_ZNSt7__cxx1112basic_stringIcSt11char_traitsIcESaIcEEC1Ev(ptr noundef nonnull align 8 dereferenceable(32) %agg.result) #23
  invoke void @_ZN4pbrt6detail21stringPrintfRecursiveIRKbJRKNSt7__cxx1112basic_stringIcSt11char_traitsIcESaIcEEERKNS_13ColorEncodingERKfEEEvPS9_PKcOT_DpOT0_(ptr noundef nonnull %agg.result, ptr noundef nonnull @.str.85, ptr noundef nonnull align 1 dereferenceable(1) %this, ptr noundef nonnull align 8 dereferenceable(32) %filename, ptr noundef nonnull align 8 dereferenceable(8) %encoding, ptr noundef nonnull align 4 dereferenceable(4) %scale)
          to label %_ZN4pbrt12StringPrintfIJRKbRKNSt7__cxx1112basic_stringIcSt11char_traitsIcESaIcEEERKNS_13ColorEncodingERKfEEES8_PKcDpOT_.exit unwind label %lpad.i

lpad.i:                                           ; preds = %entry
  %0 = landingpad { ptr, i32 }
          cleanup
  tail call void @_ZNSt7__cxx1112basic_stringIcSt11char_traitsIcESaIcEED1Ev(ptr noundef nonnull align 8 dereferenceable(32) %agg.result) #23
  resume { ptr, i32 } %0

_ZN4pbrt12StringPrintfIJRKbRKNSt7__cxx1112basic_stringIcSt11char_traitsIcESaIcEEERKNS_13ColorEncodingERKfEEES8_PKcDpOT_.exit: ; preds = %entry
  ret void
}